Certificate:
    Data:
        Version: 3 (0x2)
        Serial Number: 4096 (0x1000)
    Signature Algorithm: sha256WithRSAEncryption
        Issuer: C=US, ST=NC, L=Raleigh, O=NCSU, OU=CSC, CN=574/emailAddress=harfoush@cs.ncsu.edu
        Validity
            Not Before: Nov 17 20:26:25 2015 GMT
            Not After : Nov 16 20:26:25 2016 GMT
        Subject: C=US, ST=North Carolina, L=Raleigh, O=Internet Widgits Pty Ltd, CN=jkparkwood/emailAddress=jmehta2@ncsu.edu
        Subject Public Key Info:
            Public Key Algorithm: rsaEncryption
                Public-Key: (1024 bit)
                Modulus:
                    00:a4:71:58:4d:f5:67:ff:f3:36:76:69:74:24:53:
                    cf:13:e6:fe:2a:47:ed:2d:38:58:1a:41:1e:02:f3:
                    f2:e0:bd:8e:0e:93:d0:6d:f1:4d:8e:78:99:50:7f:
                    30:7d:eb:8c:a2:b9:cc:21:9c:3e:bc:d2:24:89:96:
                    7a:c6:54:b0:db:7a:9f:ec:93:91:76:01:6a:8c:38:
                    6a:d1:4c:d5:0a:c4:56:c6:ff:0e:3e:7f:e6:64:33:
                    66:3c:03:32:00:2e:0c:24:1d:09:20:49:1c:43:5c:
                    e6:7c:12:3e:f4:72:c1:73:39:f8:20:e6:47:7a:c2:
                    f4:d1:ab:68:32:06:5e:6f:9d
                Exponent: 65537 (0x10001)
        X509v3 extensions:
            X509v3 Basic Constraints: 
                CA:FALSE
            Netscape Comment: 
                OpenSSL Generated Certificate
            X509v3 Subject Key Identifier: 
                22:4F:BE:B3:EE:D5:3B:C3:EF:D4:CE:27:9C:28:46:48:AA:2E:A7:2F
            X509v3 Authority Key Identifier: 
                keyid:AE:85:18:73:51:F3:9C:38:22:0B:55:8C:52:2F:C2:95:06:F9:9D:EF

    Signature Algorithm: sha256WithRSAEncryption
         0a:74:fd:10:2d:dc:eb:4f:fb:81:6f:2d:a7:3b:77:05:26:d8:
         cd:68:97:b5:97:c0:7e:c5:a4:98:7a:7d:46:6c:09:f6:9b:93:
         d4:77:f9:a4:8d:b8:8c:26:12:a0:2d:24:4a:0e:e0:f4:c4:09:
         19:3b:f4:da:e7:2f:70:f2:a2:36:d5:9a:d5:fb:71:8b:29:af:
         db:00:64:d1:ab:b3:91:69:c5:ed:67:dc:6d:da:e4:37:36:95:
         b3:12:b8:49:63:24:44:d0:dc:e1:8c:08:5c:89:0e:ca:df:7b:
         3a:9e:89:ab:23:0e:f2:7e:60:bf:c0:44:cf:11:6b:48:a1:ae:
         e9:0e
-----BEGIN CERTIFICATE-----
MIIDADCCAmmgAwIBAgICEAAwDQYJKoZIhvcNAQELBQAwfDELMAkGA1UEBhMCVVMx
CzAJBgNVBAgMAk5DMRAwDgYDVQQHDAdSYWxlaWdoMQ0wCwYDVQQKDAROQ1NVMQww
CgYDVQQLDANDU0MxDDAKBgNVBAMMAzU3NDEjMCEGCSqGSIb3DQEJARYUaGFyZm91
c2hAY3MubmNzdS5lZHUwHhcNMTUxMTE3MjAyNjI1WhcNMTYxMTE2MjAyNjI1WjCB
kTELMAkGA1UEBhMCVVMxFzAVBgNVBAgMDk5vcnRoIENhcm9saW5hMRAwDgYDVQQH
DAdSYWxlaWdoMSEwHwYDVQQKDBhJbnRlcm5ldCBXaWRnaXRzIFB0eSBMdGQxEzAR
BgNVBAMMCmprcGFya3dvb2QxHzAdBgkqhkiG9w0BCQEWEGptZWh0YTJAbmNzdS5l
ZHUwgZ8wDQYJKoZIhvcNAQEBBQADgY0AMIGJAoGBAKRxWE31Z//zNnZpdCRTzxPm
/ipH7S04WBpBHgLz8uC9jg6T0G3xTY54mVB/MH3rjKK5zCGcPrzSJImWesZUsNt6
n+yTkXYBaow4atFM1QrEVsb/Dj5/5mQzZjwDMgAuDCQdCSBJHENc5nwSPvRywXM5
+CDmR3rC9NGraDIGXm+dAgMBAAGjezB5MAkGA1UdEwQCMAAwLAYJYIZIAYb4QgEN
BB8WHU9wZW5TU0wgR2VuZXJhdGVkIENlcnRpZmljYXRlMB0GA1UdDgQWBBQiT76z
7tU7w+/UziecKEZIqi6nLzAfBgNVHSMEGDAWgBSuhRhzUfOcOCILVYxSL8KVBvmd
7zANBgkqhkiG9w0BAQsFAAOBgQAKdP0QLdzrT/uBby2nO3cFJtjNaJe1l8B+xaSY
en1GbAn2m5PUd/mkjbiMJhKgLSRKDuD0xAkZO/Ta5y9w8qI21ZrV+3GLKa/bAGTR
q7ORacXtZ9xt2uQ3NpWzErhJYyRE0NzhjAhciQ7K33s6nomrIw7yfmC/wETPEWtI
oa7pDg==
-----END CERTIFICATE-----
