Certificate:
    Data:
        Version: 3 (0x2)
        Serial Number: 4099 (0x1003)
    Signature Algorithm: sha256WithRSAEncryption
        Issuer: C=US, ST=NC, L=Raleigh, O=NCSU, OU=CSC, CN=574/emailAddress=harfoush@cs.ncsu.edu
        Validity
            Not Before: Nov 19 15:43:32 2015 GMT
            Not After : Nov 18 15:43:32 2016 GMT
        Subject: C=US, ST=North Carolina, L=Raleigh, O=NCSU, OU=CSC, CN=Gowtham Ramesh/emailAddress=gramesh2@ncsu.edu
        Subject Public Key Info:
            Public Key Algorithm: rsaEncryption
                Public-Key: (1024 bit)
                Modulus:
                    00:d2:a2:2b:75:de:13:5a:57:97:32:ef:be:99:02:
                    ca:43:ed:f9:db:d0:5e:8f:1f:68:d5:e4:d4:64:54:
                    8e:66:97:71:61:0b:02:23:ca:5d:c9:6b:c8:f2:59:
                    1f:0b:40:38:22:02:03:12:6a:8c:4d:7c:20:cc:23:
                    5f:f5:b9:4f:8a:32:39:f9:ff:f0:46:ff:15:21:21:
                    f4:ff:40:d0:51:2c:5b:95:40:b2:a1:59:36:93:57:
                    24:95:11:23:4b:22:2a:86:d1:fe:d9:62:bd:39:56:
                    58:ed:9f:c0:e0:39:e3:3b:af:60:cf:4c:96:87:32:
                    7f:bb:9b:be:c3:41:1e:1f:a7
                Exponent: 65537 (0x10001)
        X509v3 extensions:
            X509v3 Basic Constraints: 
                CA:FALSE
            Netscape Comment: 
                OpenSSL Generated Certificate
            X509v3 Subject Key Identifier: 
                34:38:F9:67:0B:5A:D1:62:2F:28:73:49:41:05:AF:55:4E:48:15:54
            X509v3 Authority Key Identifier: 
                keyid:AE:85:18:73:51:F3:9C:38:22:0B:55:8C:52:2F:C2:95:06:F9:9D:EF

    Signature Algorithm: sha256WithRSAEncryption
         df:c0:a5:62:3e:a2:bd:68:35:a0:42:39:4f:5a:06:d3:35:81:
         5d:50:2d:0a:ec:e3:64:5a:71:db:d0:b4:01:2a:96:94:ba:1b:
         a9:d7:ef:37:18:31:38:61:c9:0a:9d:5b:8a:59:5d:be:72:51:
         4d:00:4b:a6:29:f4:e0:1f:46:69:73:44:be:10:74:74:d2:96:
         d7:04:70:3b:81:0d:c4:14:3e:27:2a:87:3d:b1:56:14:70:69:
         0b:20:e5:f9:c5:2e:79:e9:83:a3:6f:e4:22:f1:e6:e1:d7:50:
         05:2c:25:36:02:20:20:6b:e1:1c:c7:fd:3b:0f:a2:86:51:8f:
         ed:37
-----BEGIN CERTIFICATE-----
MIIC/zCCAmigAwIBAgICEAMwDQYJKoZIhvcNAQELBQAwfDELMAkGA1UEBhMCVVMx
CzAJBgNVBAgMAk5DMRAwDgYDVQQHDAdSYWxlaWdoMQ0wCwYDVQQKDAROQ1NVMQww
CgYDVQQLDANDU0MxDDAKBgNVBAMMAzU3NDEjMCEGCSqGSIb3DQEJARYUaGFyZm91
c2hAY3MubmNzdS5lZHUwHhcNMTUxMTE5MTU0MzMyWhcNMTYxMTE4MTU0MzMyWjCB
kDELMAkGA1UEBhMCVVMxFzAVBgNVBAgTDk5vcnRoIENhcm9saW5hMRAwDgYDVQQH
EwdSYWxlaWdoMQ0wCwYDVQQKEwROQ1NVMQwwCgYDVQQLEwNDU0MxFzAVBgNVBAMT
Dkdvd3RoYW0gUmFtZXNoMSAwHgYJKoZIhvcNAQkBFhFncmFtZXNoMkBuY3N1LmVk
dTCBnzANBgkqhkiG9w0BAQEFAAOBjQAwgYkCgYEA0qIrdd4TWleXMu++mQLKQ+35
29Bejx9o1eTUZFSOZpdxYQsCI8pdyWvI8lkfC0A4IgIDEmqMTXwgzCNf9blPijI5
+f/wRv8VISH0/0DQUSxblUCyoVk2k1cklREjSyIqhtH+2WK9OVZY7Z/A4DnjO69g
z0yWhzJ/u5u+w0EeH6cCAwEAAaN7MHkwCQYDVR0TBAIwADAsBglghkgBhvhCAQ0E
HxYdT3BlblNTTCBHZW5lcmF0ZWQgQ2VydGlmaWNhdGUwHQYDVR0OBBYEFDQ4+WcL
WtFiLyhzSUEFr1VOSBVUMB8GA1UdIwQYMBaAFK6FGHNR85w4IgtVjFIvwpUG+Z3v
MA0GCSqGSIb3DQEBCwUAA4GBAN/ApWI+or1oNaBCOU9aBtM1gV1QLQrs42RacdvQ
tAEqlpS6G6nX7zcYMThhyQqdW4pZXb5yUU0AS6Yp9OAfRmlzRL4QdHTSltcEcDuB
DcQUPicqhz2xVhRwaQsg5fnFLnnpg6Nv5CLx5uHXUAUsJTYCICBr4RzH/TsPooZR
j+03
-----END CERTIFICATE-----
