Certificate:
    Data:
        Version: 3 (0x2)
        Serial Number: 4103 (0x1007)
    Signature Algorithm: sha256WithRSAEncryption
        Issuer: C=US, ST=NC, L=Raleigh, O=NCSU, OU=CSC, CN=574/emailAddress=harfoush@cs.ncsu.edu
        Validity
            Not Before: Nov 19 15:43:35 2015 GMT
            Not After : Nov 18 15:43:35 2016 GMT
        Subject: C=US, ST=North carolina, L=Raleigh, O=NCSU, OU=CSC574, CN=Prashant/emailAddress=pkulkar4@ncsu.edu
        Subject Public Key Info:
            Public Key Algorithm: rsaEncryption
                Public-Key: (1024 bit)
                Modulus:
                    00:cb:e5:60:82:b4:25:f5:00:46:74:94:45:6c:f6:
                    80:b5:fe:16:8f:15:21:b6:92:0f:c4:59:09:8c:f6:
                    2b:1c:e9:b6:43:dd:ef:51:a2:3a:e7:d3:56:dd:e1:
                    7f:7b:6a:33:0e:7a:73:0f:88:7f:8c:1a:71:80:83:
                    12:00:7c:07:7d:b1:70:9d:15:6a:15:eb:91:09:37:
                    28:47:0b:b2:df:7e:d9:6d:d8:a4:96:1e:ad:5b:cd:
                    1c:f4:58:bd:a5:0e:13:da:0c:02:97:d3:62:f4:73:
                    a6:5d:aa:c4:41:48:03:05:e8:26:48:3c:74:12:c7:
                    a2:58:5a:48:45:88:61:f9:b9
                Exponent: 65537 (0x10001)
        X509v3 extensions:
            X509v3 Basic Constraints: 
                CA:FALSE
            Netscape Comment: 
                OpenSSL Generated Certificate
            X509v3 Subject Key Identifier: 
                0C:B1:30:74:6F:F0:FF:33:EF:68:1B:26:07:E4:30:D3:FC:CB:E7:DB
            X509v3 Authority Key Identifier: 
                keyid:AE:85:18:73:51:F3:9C:38:22:0B:55:8C:52:2F:C2:95:06:F9:9D:EF

    Signature Algorithm: sha256WithRSAEncryption
         c9:20:36:8c:57:e1:de:8b:a7:bd:50:2d:04:c1:81:d7:cf:e8:
         57:17:60:ae:48:fc:90:f7:0d:54:19:0b:27:28:f3:60:a5:a7:
         23:6a:db:cd:b1:21:96:5a:63:f2:0c:76:2b:86:5b:61:6a:f6:
         34:18:14:e7:29:a2:9d:66:4e:15:8e:45:ea:4d:ef:62:c1:39:
         f4:17:2e:b0:b2:db:66:6f:5c:de:76:66:a8:5d:85:6b:7c:ed:
         a0:eb:8b:86:af:e2:a7:6e:a4:2f:1d:40:b5:9c:17:6b:d7:ef:
         67:2d:2c:90:16:d6:7c:b0:97:5a:27:59:3d:08:41:72:c6:35:
         97:71
-----BEGIN CERTIFICATE-----
MIIC/DCCAmWgAwIBAgICEAcwDQYJKoZIhvcNAQELBQAwfDELMAkGA1UEBhMCVVMx
CzAJBgNVBAgMAk5DMRAwDgYDVQQHDAdSYWxlaWdoMQ0wCwYDVQQKDAROQ1NVMQww
CgYDVQQLDANDU0MxDDAKBgNVBAMMAzU3NDEjMCEGCSqGSIb3DQEJARYUaGFyZm91
c2hAY3MubmNzdS5lZHUwHhcNMTUxMTE5MTU0MzM1WhcNMTYxMTE4MTU0MzM1WjCB
jTELMAkGA1UEBhMCVVMxFzAVBgNVBAgMDk5vcnRoIGNhcm9saW5hMRAwDgYDVQQH
DAdSYWxlaWdoMQ0wCwYDVQQKDAROQ1NVMQ8wDQYDVQQLDAZDU0M1NzQxETAPBgNV
BAMMCFByYXNoYW50MSAwHgYJKoZIhvcNAQkBFhFwa3Vsa2FyNEBuY3N1LmVkdTCB
nzANBgkqhkiG9w0BAQEFAAOBjQAwgYkCgYEAy+VggrQl9QBGdJRFbPaAtf4WjxUh
tpIPxFkJjPYrHOm2Q93vUaI659NW3eF/e2ozDnpzD4h/jBpxgIMSAHwHfbFwnRVq
FeuRCTcoRwuy337Zbdiklh6tW80c9Fi9pQ4T2gwCl9Ni9HOmXarEQUgDBegmSDx0
EseiWFpIRYhh+bkCAwEAAaN7MHkwCQYDVR0TBAIwADAsBglghkgBhvhCAQ0EHxYd
T3BlblNTTCBHZW5lcmF0ZWQgQ2VydGlmaWNhdGUwHQYDVR0OBBYEFAyxMHRv8P8z
72gbJgfkMNP8y+fbMB8GA1UdIwQYMBaAFK6FGHNR85w4IgtVjFIvwpUG+Z3vMA0G
CSqGSIb3DQEBCwUAA4GBAMkgNoxX4d6Lp71QLQTBgdfP6FcXYK5I/JD3DVQZCyco
82ClpyNq282xIZZaY/IMdiuGW2Fq9jQYFOcpop1mThWORepN72LBOfQXLrCy22Zv
XN52ZqhdhWt87aDri4av4qdupC8dQLWcF2vX72ctLJAW1nywl1onWT0IQXLGNZdx
-----END CERTIFICATE-----
