Certificate:
    Data:
        Version: 3 (0x2)
        Serial Number: 4133 (0x1025)
    Signature Algorithm: sha256WithRSAEncryption
        Issuer: C=US, ST=NC, L=Raleigh, O=NCSU, OU=CSC, CN=574/emailAddress=harfoush@cs.ncsu.edu
        Validity
            Not Before: Nov 24 20:31:08 2015 GMT
            Not After : Nov 23 20:31:08 2016 GMT
        Subject: C=AU, ST=Some-State, O=Internet Widgits Pty Ltd/emailAddress=sbkumar@ncsu.edu
        Subject Public Key Info:
            Public Key Algorithm: rsaEncryption
                Public-Key: (1024 bit)
                Modulus:
                    00:b4:3b:51:dc:fb:a1:f9:23:d1:1b:e6:a3:1d:90:
                    fd:43:a9:bc:b2:7d:1a:7e:6a:b2:d6:74:6e:8a:06:
                    1e:b6:45:e5:2a:ba:4e:0d:4b:b0:9f:cd:c2:71:70:
                    59:02:91:da:db:93:7c:61:b7:e4:8c:16:a1:6b:71:
                    ca:9e:a4:e8:a5:1c:ee:32:cb:7b:ce:c4:e3:2f:c6:
                    9d:1f:ca:f0:ab:4c:12:d3:fc:77:59:9c:dc:f1:b0:
                    82:fd:12:dc:11:f8:fd:eb:75:aa:d8:40:a7:c5:c9:
                    29:9b:c2:a3:ba:c6:18:5b:5d:72:44:f9:38:db:00:
                    77:70:74:cd:de:6e:ca:f3:b5
                Exponent: 65537 (0x10001)
        X509v3 extensions:
            X509v3 Basic Constraints: 
                CA:FALSE
            Netscape Comment: 
                OpenSSL Generated Certificate
            X509v3 Subject Key Identifier: 
                E9:AC:7F:C0:17:7B:91:48:3A:76:1B:5A:0A:59:4B:40:5E:78:83:2A
            X509v3 Authority Key Identifier: 
                keyid:AE:85:18:73:51:F3:9C:38:22:0B:55:8C:52:2F:C2:95:06:F9:9D:EF

    Signature Algorithm: sha256WithRSAEncryption
         21:71:8b:35:d3:4b:6d:a2:f4:ac:2e:f7:a3:f2:47:03:d0:ba:
         74:e0:ac:9a:7b:0e:9a:89:71:95:eb:d0:90:ed:f9:8c:5f:73:
         2e:c1:65:30:9f:66:02:10:b0:f0:cc:82:16:6d:84:25:1f:dc:
         38:2f:ab:2b:fb:a1:8a:82:21:3e:06:62:54:85:25:cf:e2:a9:
         a4:1d:4c:a4:8f:e1:d2:e7:b9:d2:a9:d2:06:32:da:55:a0:37:
         5c:f3:fa:20:38:63:a0:db:71:14:d8:a7:0b:20:31:a5:84:67:
         9e:fa:8f:3a:c2:9c:2b:50:eb:41:ec:a5:11:e7:a6:9f:d3:5a:
         f9:48
-----BEGIN CERTIFICATE-----
MIIC1DCCAj2gAwIBAgICECUwDQYJKoZIhvcNAQELBQAwfDELMAkGA1UEBhMCVVMx
CzAJBgNVBAgMAk5DMRAwDgYDVQQHDAdSYWxlaWdoMQ0wCwYDVQQKDAROQ1NVMQww
CgYDVQQLDANDU0MxDDAKBgNVBAMMAzU3NDEjMCEGCSqGSIb3DQEJARYUaGFyZm91
c2hAY3MubmNzdS5lZHUwHhcNMTUxMTI0MjAzMTA4WhcNMTYxMTIzMjAzMTA4WjBm
MQswCQYDVQQGEwJBVTETMBEGA1UECAwKU29tZS1TdGF0ZTEhMB8GA1UECgwYSW50
ZXJuZXQgV2lkZ2l0cyBQdHkgTHRkMR8wHQYJKoZIhvcNAQkBFhBzYmt1bWFyQG5j
c3UuZWR1MIGfMA0GCSqGSIb3DQEBAQUAA4GNADCBiQKBgQC0O1Hc+6H5I9Eb5qMd
kP1DqbyyfRp+arLWdG6KBh62ReUquk4NS7CfzcJxcFkCkdrbk3xht+SMFqFrccqe
pOilHO4yy3vOxOMvxp0fyvCrTBLT/HdZnNzxsIL9EtwR+P3rdarYQKfFySmbwqO6
xhhbXXJE+TjbAHdwdM3ebsrztQIDAQABo3sweTAJBgNVHRMEAjAAMCwGCWCGSAGG
+EIBDQQfFh1PcGVuU1NMIEdlbmVyYXRlZCBDZXJ0aWZpY2F0ZTAdBgNVHQ4EFgQU
6ax/wBd7kUg6dhtaCllLQF54gyowHwYDVR0jBBgwFoAUroUYc1HznDgiC1WMUi/C
lQb5ne8wDQYJKoZIhvcNAQELBQADgYEAIXGLNdNLbaL0rC73o/JHA9C6dOCsmnsO
molxlevQkO35jF9zLsFlMJ9mAhCw8MyCFm2EJR/cOC+rK/uhioIhPgZiVIUlz+Kp
pB1MpI/h0ue50qnSBjLaVaA3XPP6IDhjoNtxFNinCyAxpYRnnvqPOsKcK1DrQeyl
Eeemn9Na+Ug=
-----END CERTIFICATE-----
